; Function Attrs: mustprogress uwtable
define hidden void @_ZNK4cvc58internal9BitVector16unsignedDivTotalERKS1_(ptr dead_on_unwind noalias writable sret(%"class.cvc5::internal::BitVector") align 8 %0, ptr noundef nonnull align 8 dereferenceable(24) %1, ptr noundef nonnull align 8 dereferenceable(24) %2) local_unnamed_addr #3 align 2 personality ptr @__gxx_personality_v0 {
  %4 = alloca %"class.cvc5::internal::Integer", align 8
  %5 = alloca %"class.cvc5::internal::Integer", align 8
  %6 = alloca %"class.cvc5::internal::Integer", align 8
  %7 = alloca %"class.cvc5::internal::Integer", align 8
  %8 = getelementptr inbounds nuw i8, ptr %2, i64 8
  call void @llvm.lifetime.start.p0(i64 16, ptr nonnull %4) #16
  call void @__gmpz_init(ptr noundef nonnull align 8 dereferenceable(16) %4) #16
  %9 = invoke noundef zeroext i1 @_ZNK4cvc58internal7IntegereqERKS1_(ptr noundef nonnull align 8 dereferenceable(16) %8, ptr noundef nonnull align 8 dereferenceable(16) %4)
          to label %10 unwind label %26

10:                                               ; preds = %3
  invoke void @__gmpz_clear(ptr noundef nonnull align 8 dereferenceable(16) %4)
          to label %_ZN4cvc58internal7IntegerD2Ev.exit unwind label %11

11:                                               ; preds = %10
  %12 = landingpad { ptr, i32 }
          catch ptr null
  %13 = extractvalue { ptr, i32 } %12, 0
  call void @__clang_call_terminate(ptr %13) #17
  unreachable

_ZN4cvc58internal7IntegerD2Ev.exit:               ; preds = %10
  call void @llvm.lifetime.end.p0(i64 16, ptr nonnull %4) #16
  %14 = load i32, ptr %1, align 8, !tbaa !11
  br i1 %9, label %15, label %41

15:                                               ; preds = %_ZN4cvc58internal7IntegerD2Ev.exit
  call void @llvm.lifetime.start.p0(i64 16, ptr nonnull %5) #16
  call void @llvm.lifetime.start.p0(i64 16, ptr nonnull %6) #16
  call void @__gmpz_init_set_ui(ptr noundef nonnull align 8 dereferenceable(16) %6, i64 noundef 1)
  %16 = load i32, ptr %1, align 8, !tbaa !11
  %17 = add i32 %16, -1
  invoke void @_ZNK4cvc58internal7Integer9oneExtendEjj(ptr dead_on_unwind nonnull writable sret(%"class.cvc5::internal::Integer") align 8 %5, ptr noundef nonnull align 8 dereferenceable(16) %6, i32 noundef 1, i32 noundef %17)
          to label %18 unwind label %31

18:                                               ; preds = %15
  store i32 %14, ptr %0, align 8, !tbaa !11
  %19 = getelementptr inbounds nuw i8, ptr %0, i64 8
  invoke void @_ZNK4cvc58internal7Integer9modByPow2Ej(ptr dead_on_unwind nonnull writable sret(%"class.cvc5::internal::Integer") align 8 %19, ptr noundef nonnull align 8 dereferenceable(16) %5, i32 noundef %14)
          to label %_ZN4cvc58internal9BitVectorC2EjRKNS0_7IntegerE.exit unwind label %33

_ZN4cvc58internal9BitVectorC2EjRKNS0_7IntegerE.exit: ; preds = %18
  invoke void @__gmpz_clear(ptr noundef nonnull align 8 dereferenceable(16) %5)
          to label %_ZN4cvc58internal7IntegerD2Ev.exit8 unwind label %20

20:                                               ; preds = %_ZN4cvc58internal9BitVectorC2EjRKNS0_7IntegerE.exit
  %21 = landingpad { ptr, i32 }
          catch ptr null
  %22 = extractvalue { ptr, i32 } %21, 0
  call void @__clang_call_terminate(ptr %22) #17
  unreachable

_ZN4cvc58internal7IntegerD2Ev.exit8:              ; preds = %_ZN4cvc58internal9BitVectorC2EjRKNS0_7IntegerE.exit
  invoke void @__gmpz_clear(ptr noundef nonnull align 8 dereferenceable(16) %6)
          to label %_ZN4cvc58internal7IntegerD2Ev.exit9 unwind label %23

23:                                               ; preds = %_ZN4cvc58internal7IntegerD2Ev.exit8
  %24 = landingpad { ptr, i32 }
          catch ptr null
  %25 = extractvalue { ptr, i32 } %24, 0
  call void @__clang_call_terminate(ptr %25) #17
  unreachable

_ZN4cvc58internal7IntegerD2Ev.exit9:              ; preds = %_ZN4cvc58internal7IntegerD2Ev.exit8
  call void @llvm.lifetime.end.p0(i64 16, ptr nonnull %6) #16
  call void @llvm.lifetime.end.p0(i64 16, ptr nonnull %5) #16
  br label %52

26:                                               ; preds = %3
  %27 = landingpad { ptr, i32 }
          cleanup
  invoke void @__gmpz_clear(ptr noundef nonnull align 8 dereferenceable(16) %4)
          to label %_ZN4cvc58internal7IntegerD2Ev.exit10 unwind label %28

28:                                               ; preds = %26
  %29 = landingpad { ptr, i32 }
          catch ptr null
  %30 = extractvalue { ptr, i32 } %29, 0
  call void @__clang_call_terminate(ptr %30) #17
  unreachable

_ZN4cvc58internal7IntegerD2Ev.exit10:             ; preds = %26
  call void @llvm.lifetime.end.p0(i64 16, ptr nonnull %4) #16
  br label %53

31:                                               ; preds = %15
  %32 = landingpad { ptr, i32 }
          cleanup
  br label %_ZN4cvc58internal7IntegerD2Ev.exit11

33:                                               ; preds = %18
  %34 = landingpad { ptr, i32 }
          cleanup
  invoke void @__gmpz_clear(ptr noundef nonnull align 8 dereferenceable(16) %5)
          to label %_ZN4cvc58internal7IntegerD2Ev.exit11 unwind label %35

35:                                               ; preds = %33
  %36 = landingpad { ptr, i32 }
          catch ptr null
  %37 = extractvalue { ptr, i32 } %36, 0
  call void @__clang_call_terminate(ptr %37) #17
  unreachable

_ZN4cvc58internal7IntegerD2Ev.exit11:             ; preds = %33, %31
  %.pn = phi { ptr, i32 } [ %32, %31 ], [ %34, %33 ]
  invoke void @__gmpz_clear(ptr noundef nonnull align 8 dereferenceable(16) %6)
          to label %_ZN4cvc58internal7IntegerD2Ev.exit12 unwind label %38

38:                                               ; preds = %_ZN4cvc58internal7IntegerD2Ev.exit11
  %39 = landingpad { ptr, i32 }
          catch ptr null
  %40 = extractvalue { ptr, i32 } %39, 0
  call void @__clang_call_terminate(ptr %40) #17
  unreachable

_ZN4cvc58internal7IntegerD2Ev.exit12:             ; preds = %_ZN4cvc58internal7IntegerD2Ev.exit11
  call void @llvm.lifetime.end.p0(i64 16, ptr nonnull %6) #16
  call void @llvm.lifetime.end.p0(i64 16, ptr nonnull %5) #16
  br label %53

41:                                               ; preds = %_ZN4cvc58internal7IntegerD2Ev.exit
  call void @llvm.lifetime.start.p0(i64 16, ptr nonnull %7) #16
  %42 = getelementptr inbounds nuw i8, ptr %1, i64 8
  call void @_ZNK4cvc58internal7Integer19floorDivideQuotientERKS1_(ptr dead_on_unwind nonnull writable sret(%"class.cvc5::internal::Integer") align 8 %7, ptr noundef nonnull align 8 dereferenceable(16) %42, ptr noundef nonnull align 8 dereferenceable(16) %8)
  store i32 %14, ptr %0, align 8, !tbaa !11
  %43 = getelementptr inbounds nuw i8, ptr %0, i64 8
  invoke void @_ZNK4cvc58internal7Integer9modByPow2Ej(ptr dead_on_unwind nonnull writable sret(%"class.cvc5::internal::Integer") align 8 %43, ptr noundef nonnull align 8 dereferenceable(16) %7, i32 noundef %14)
          to label %_ZN4cvc58internal9BitVectorC2EjRKNS0_7IntegerE.exit13 unwind label %47

_ZN4cvc58internal9BitVectorC2EjRKNS0_7IntegerE.exit13: ; preds = %41
  invoke void @__gmpz_clear(ptr noundef nonnull align 8 dereferenceable(16) %7)
          to label %_ZN4cvc58internal7IntegerD2Ev.exit14 unwind label %44

44:                                               ; preds = %_ZN4cvc58internal9BitVectorC2EjRKNS0_7IntegerE.exit13
  %45 = landingpad { ptr, i32 }
          catch ptr null
  %46 = extractvalue { ptr, i32 } %45, 0
  call void @__clang_call_terminate(ptr %46) #17
  unreachable

_ZN4cvc58internal7IntegerD2Ev.exit14:             ; preds = %_ZN4cvc58internal9BitVectorC2EjRKNS0_7IntegerE.exit13
  call void @llvm.lifetime.end.p0(i64 16, ptr nonnull %7) #16
  br label %52

47:                                               ; preds = %41
  %48 = landingpad { ptr, i32 }
          cleanup
  invoke void @__gmpz_clear(ptr noundef nonnull align 8 dereferenceable(16) %7)
          to label %_ZN4cvc58internal7IntegerD2Ev.exit15 unwind label %49

49:                                               ; preds = %47
  %50 = landingpad { ptr, i32 }
          catch ptr null
  %51 = extractvalue { ptr, i32 } %50, 0
  call void @__clang_call_terminate(ptr %51) #17
  unreachable

_ZN4cvc58internal7IntegerD2Ev.exit15:             ; preds = %47
  call void @llvm.lifetime.end.p0(i64 16, ptr nonnull %7) #16
  br label %53

52:                                               ; preds = %_ZN4cvc58internal7IntegerD2Ev.exit14, %_ZN4cvc58internal7IntegerD2Ev.exit9
  ret void

53:                                               ; preds = %_ZN4cvc58internal7IntegerD2Ev.exit15, %_ZN4cvc58internal7IntegerD2Ev.exit12, %_ZN4cvc58internal7IntegerD2Ev.exit10
  %.pn.pn = phi { ptr, i32 } [ %.pn, %_ZN4cvc58internal7IntegerD2Ev.exit12 ], [ %48, %_ZN4cvc58internal7IntegerD2Ev.exit15 ], [ %27, %_ZN4cvc58internal7IntegerD2Ev.exit10 ]
  resume { ptr, i32 } %.pn.pn
}